target datalayout = "e-m:e-p270:32:32-p271:32:32-p272:64:64-i64:64-i128:128-f80:128-n8:16:32:64-S128"
target triple = "x86_64-pc-linux-gnu"

%class.AstNode = type { ptr, ptr, ptr, ptr, ptr, ptr, ptr, ptr, %class.VNType, %struct.anon, i8, i32, ptr, ptr, ptr, ptr, %class.VNUser, i32, i32, %class.VNUser, %class.VNUser, i32, i32, %class.VNUser }
%class.VNType = type { i16 }
%struct.anon = type { i8 }
%class.VNUser = type { %union.anon.10 }
%union.anon.10 = type { ptr }

@_ZN12VNUser4InUse12s_userCntGblE = external global i32, align 4

; Function Attrs: mustprogress nounwind uwtable
define linkonce_odr dso_local void @_ZN6VNUserC2Ei(ptr noundef nonnull align 8 dereferenceable(8) %0, i32 noundef %1) unnamed_addr #5 comdat align 2 {
  %3 = alloca ptr, align 8
  %4 = alloca i32, align 4
  store ptr %0, ptr %3, align 8
  store i32 %1, ptr %4, align 4
  %5 = load ptr, ptr %3, align 8
  %6 = getelementptr inbounds %class.VNUser, ptr %5, i32 0, i32 0
  store ptr null, ptr %6, align 8
  %7 = load i32, ptr %4, align 4
  %8 = getelementptr inbounds %class.VNUser, ptr %5, i32 0, i32 0
  store i32 %7, ptr %8, align 8
  ret void
}

; Function Attrs: mustprogress nounwind uwtable
define linkonce_odr dso_local noundef i32 @_ZNK6VNUser5toIntEv(ptr noundef nonnull align 8 dereferenceable(8) %0) #5 comdat align 2 {
  %2 = alloca ptr, align 8
  store ptr %0, ptr %2, align 8
  %3 = load ptr, ptr %2, align 8
  %4 = getelementptr inbounds %class.VNUser, ptr %3, i32 0, i32 0
  %5 = load i32, ptr %4, align 8
  ret i32 %5
}

; Function Attrs: mustprogress uwtable
define linkonce_odr dso_local ptr @_ZNK7AstNode6user4uEv(ptr noundef nonnull align 8 dereferenceable(152) %0) #4 comdat align 2 {
  %2 = alloca %class.VNUser, align 8
  %3 = alloca ptr, align 8
  store ptr %0, ptr %3, align 8
  %4 = load ptr, ptr %3, align 8
  %5 = getelementptr inbounds %class.AstNode, ptr %4, i32 0, i32 22
  %6 = load i32, ptr %5, align 4
  %7 = load i32, ptr @_ZN12VNUser4InUse12s_userCntGblE, align 4
  %8 = icmp eq i32 %6, %7
  br i1 %8, label %9, label %11

9:                                                ; preds = %1
  %10 = getelementptr inbounds %class.AstNode, ptr %4, i32 0, i32 23
  call void @llvm.memcpy.p0.p0.i64(ptr align 8 %2, ptr align 8 %10, i64 8, i1 false)
  br label %12

11:                                               ; preds = %1
  call void @_ZN6VNUserC2Ei(ptr noundef nonnull align 8 dereferenceable(8) %2, i32 noundef 0)
  br label %12

12:                                               ; preds = %11, %9
  %13 = getelementptr inbounds %class.VNUser, ptr %2, i32 0, i32 0
  %14 = getelementptr inbounds %union.anon.10, ptr %13, i32 0, i32 0
  %15 = load ptr, ptr %14, align 8
  ret ptr %15
}

; Function Attrs: mustprogress uwtable
define linkonce_odr dso_local noundef i32 @_ZNK7AstNode5user4Ev(ptr noundef nonnull align 8 dereferenceable(152) %0) #4 comdat align 2 {
  %2 = alloca ptr, align 8
  %3 = alloca %class.VNUser, align 8
  store ptr %0, ptr %2, align 8
  %4 = load ptr, ptr %2, align 8
  %5 = call ptr @_ZNK7AstNode6user4uEv(ptr noundef nonnull align 8 dereferenceable(152) %4)
  %6 = getelementptr inbounds %class.VNUser, ptr %3, i32 0, i32 0
  %7 = getelementptr inbounds %union.anon.10, ptr %6, i32 0, i32 0
  store ptr %5, ptr %7, align 8
  %8 = call noundef i32 @_ZNK6VNUser5toIntEv(ptr noundef nonnull align 8 dereferenceable(8) %3)
  ret i32 %8
}

; Function Attrs: mustprogress uwtable
define internal noundef zeroext i1 @"_ZZZN7V3Sched12_GLOBAL__N_110buildGraphERKNS_12LogicRegionsEENK3$_0clENS0_11RegionFlagsEP8AstScopeP9AstActiveENKUlP11AstVarScopeE1_clESB_"(ptr noundef nonnull align 1 dereferenceable(1) %0, ptr noundef %1) #4 align 2 {
  %3 = alloca ptr, align 8
  %4 = alloca ptr, align 8
  store ptr %0, ptr %3, align 8
  store ptr %1, ptr %4, align 8
  %5 = load ptr, ptr %4, align 8
  %6 = call noundef i32 @_ZNK7AstNode5user4Ev(ptr noundef nonnull align 8 dereferenceable(152) %5)
  %7 = icmp ne i32 %6, 0
  %8 = xor i1 %7, true
  ret i1 %8
}

; Function Attrs: mustprogress nounwind uwtable
define linkonce_odr dso_local noundef ptr @_ZNKSt9_Any_data9_M_accessEv(ptr noundef nonnull align 8 dereferenceable(16) %0) #5 comdat align 2 {
  %2 = alloca ptr, align 8
  store ptr %0, ptr %2, align 8
  %3 = load ptr, ptr %2, align 8
  %4 = getelementptr inbounds [16 x i8], ptr %3, i64 0, i64 0
  ret ptr %4
}

; Function Attrs: mustprogress uwtable
define internal noundef zeroext i1 @"_ZSt13__invoke_implIbRZZN7V3Sched12_GLOBAL__N_110buildGraphERKNS0_12LogicRegionsEENK3$_0clENS1_11RegionFlagsEP8AstScopeP9AstActiveEUlP11AstVarScopeE1_JSC_EET_St14__invoke_otherOT0_DpOT1_"(ptr noundef nonnull align 1 dereferenceable(1) %0, ptr noundef nonnull align 8 dereferenceable(8) %1) #4 {
  %3 = alloca ptr, align 8
  %4 = alloca ptr, align 8
  store ptr %0, ptr %3, align 8
  store ptr %1, ptr %4, align 8
  %5 = load ptr, ptr %3, align 8
  %6 = load ptr, ptr %4, align 8
  %7 = load ptr, ptr %6, align 8
  %8 = call noundef zeroext i1 @"_ZZZN7V3Sched12_GLOBAL__N_110buildGraphERKNS_12LogicRegionsEENK3$_0clENS0_11RegionFlagsEP8AstScopeP9AstActiveENKUlP11AstVarScopeE1_clESB_"(ptr noundef nonnull align 1 dereferenceable(1) %5, ptr noundef %7)
  ret i1 %8
}

; Function Attrs: mustprogress nounwind uwtable
define internal noundef nonnull align 1 dereferenceable(1) ptr @"_ZNKSt9_Any_data9_M_accessIZZN7V3Sched12_GLOBAL__N_110buildGraphERKNS1_12LogicRegionsEENK3$_0clENS2_11RegionFlagsEP8AstScopeP9AstActiveEUlP11AstVarScopeE1_EERKT_v"(ptr noundef nonnull align 8 dereferenceable(16) %0) #5 align 2 {
  %2 = alloca ptr, align 8
  store ptr %0, ptr %2, align 8
  %3 = load ptr, ptr %2, align 8
  %4 = call noundef ptr @_ZNKSt9_Any_data9_M_accessEv(ptr noundef nonnull align 8 dereferenceable(16) %3) #3
  ret ptr %4
}

; Function Attrs: mustprogress uwtable
define internal noundef zeroext i1 @"_ZSt10__invoke_rIbRZZN7V3Sched12_GLOBAL__N_110buildGraphERKNS0_12LogicRegionsEENK3$_0clENS1_11RegionFlagsEP8AstScopeP9AstActiveEUlP11AstVarScopeE1_JSC_EENSt9enable_ifIX16is_invocable_r_vIT_T0_DpT1_EESG_E4typeEOSH_DpOSI_"(ptr noundef nonnull align 1 dereferenceable(1) %0, ptr noundef nonnull align 8 dereferenceable(8) %1) #4 {
  %3 = alloca ptr, align 8
  %4 = alloca ptr, align 8
  store ptr %0, ptr %3, align 8
  store ptr %1, ptr %4, align 8
  %5 = load ptr, ptr %3, align 8
  %6 = load ptr, ptr %4, align 8
  %7 = call noundef zeroext i1 @"_ZSt13__invoke_implIbRZZN7V3Sched12_GLOBAL__N_110buildGraphERKNS0_12LogicRegionsEENK3$_0clENS1_11RegionFlagsEP8AstScopeP9AstActiveEUlP11AstVarScopeE1_JSC_EET_St14__invoke_otherOT0_DpOT1_"(ptr noundef nonnull align 1 dereferenceable(1) %5, ptr noundef nonnull align 8 dereferenceable(8) %6)
  ret i1 %7
}

; Function Attrs: mustprogress nounwind uwtable
define internal noundef ptr @"_ZNSt14_Function_base13_Base_managerIZZN7V3Sched12_GLOBAL__N_110buildGraphERKNS1_12LogicRegionsEENK3$_0clENS2_11RegionFlagsEP8AstScopeP9AstActiveEUlP11AstVarScopeE1_E14_M_get_pointerERKSt9_Any_data"(ptr noundef nonnull align 8 dereferenceable(16) %0) #5 align 2 {
  %2 = alloca ptr, align 8
  %3 = alloca ptr, align 8
  store ptr %0, ptr %2, align 8
  %4 = load ptr, ptr %2, align 8
  %5 = call noundef nonnull align 1 dereferenceable(1) ptr @"_ZNKSt9_Any_data9_M_accessIZZN7V3Sched12_GLOBAL__N_110buildGraphERKNS1_12LogicRegionsEENK3$_0clENS2_11RegionFlagsEP8AstScopeP9AstActiveEUlP11AstVarScopeE1_EERKT_v"(ptr noundef nonnull align 8 dereferenceable(16) %4) #3
  store ptr %5, ptr %3, align 8
  %6 = load ptr, ptr %3, align 8
  ret ptr %6
}

; Function Attrs: mustprogress uwtable
define internal noundef zeroext i1 @"_ZNSt17_Function_handlerIFbP11AstVarScopeEZZN7V3Sched12_GLOBAL__N_110buildGraphERKNS3_12LogicRegionsEENK3$_0clENS4_11RegionFlagsEP8AstScopeP9AstActiveEUlS1_E1_E9_M_invokeERKSt9_Any_dataOS1_"(ptr noundef nonnull align 8 dereferenceable(16) %0, ptr noundef nonnull align 8 dereferenceable(8) %1) #4 align 2 {
  %3 = alloca ptr, align 8
  %4 = alloca ptr, align 8
  store ptr %0, ptr %3, align 8
  store ptr %1, ptr %4, align 8
  %5 = load ptr, ptr %3, align 8
  %6 = call noundef ptr @"_ZNSt14_Function_base13_Base_managerIZZN7V3Sched12_GLOBAL__N_110buildGraphERKNS1_12LogicRegionsEENK3$_0clENS2_11RegionFlagsEP8AstScopeP9AstActiveEUlP11AstVarScopeE1_E14_M_get_pointerERKSt9_Any_data"(ptr noundef nonnull align 8 dereferenceable(16) %5) #3
  %7 = load ptr, ptr %4, align 8
  %8 = call noundef zeroext i1 @"_ZSt10__invoke_rIbRZZN7V3Sched12_GLOBAL__N_110buildGraphERKNS0_12LogicRegionsEENK3$_0clENS1_11RegionFlagsEP8AstScopeP9AstActiveEUlP11AstVarScopeE1_JSC_EENSt9enable_ifIX16is_invocable_r_vIT_T0_DpT1_EESG_E4typeEOSH_DpOSI_"(ptr noundef nonnull align 1 dereferenceable(1) %6, ptr noundef nonnull align 8 dereferenceable(8) %7)
  ret i1 %8
}